target datalayout = "e-m:e-p270:32:32-p271:32:32-p272:64:64-i64:64-i128:128-f80:128-n8:16:32:64-S128"
target triple = "x86_64-pc-linux-gnu"

%struct.GISTBuildBuffers = type { ptr, ptr, i64, ptr, i32, i32, ptr, ptr, i32, i32, ptr, i32, ptr, i32, i32, i32 }
%struct.GISTNodeBuffer = type { i32, i32, i32, ptr, i8, i8, i32 }

@CurrentMemoryContext = external global ptr, align 8

; Function Attrs: inlinehint nounwind uwtable
define internal ptr @MemoryContextSwitchTo(ptr noundef %0) #3 {
  %2 = alloca ptr, align 8
  %3 = alloca ptr, align 8
  store ptr %0, ptr %2, align 8
  call void @llvm.lifetime.start.p0(i64 8, ptr %3) #7
  %4 = load ptr, ptr @CurrentMemoryContext, align 8
  store ptr %4, ptr %3, align 8
  %5 = load ptr, ptr %2, align 8
  store ptr %5, ptr @CurrentMemoryContext, align 8
  %6 = load ptr, ptr %3, align 8
  call void @llvm.lifetime.end.p0(i64 8, ptr %3) #7
  ret ptr %6
}

; Function Attrs: nounwind uwtable
define dso_local ptr @gistGetNodeBuffer(ptr noundef %0, ptr noundef %1, i32 noundef %2, i32 noundef %3) #0 {
  %5 = alloca ptr, align 8
  %6 = alloca ptr, align 8
  %7 = alloca i32, align 4
  %8 = alloca i32, align 4
  %9 = alloca ptr, align 8
  %10 = alloca i8, align 1
  %11 = alloca ptr, align 8
  %12 = alloca i32, align 4
  store ptr %0, ptr %5, align 8
  store ptr %1, ptr %6, align 8
  store i32 %2, ptr %7, align 4
  store i32 %3, ptr %8, align 4
  call void @llvm.lifetime.start.p0(i64 8, ptr %9) #7
  call void @llvm.lifetime.start.p0(i64 1, ptr %10) #7
  %13 = load ptr, ptr %5, align 8
  %14 = getelementptr inbounds nuw %struct.GISTBuildBuffers, ptr %13, i32 0, i32 6
  %15 = load ptr, ptr %14, align 8
  %16 = call ptr @hash_search(ptr noundef %15, ptr noundef %7, i32 noundef 1, ptr noundef %10)
  store ptr %16, ptr %9, align 8
  %17 = load i8, ptr %10, align 1, !range !4, !noundef !5
  %18 = trunc i8 %17 to i1
  br i1 %18, label %93, label %19

19:                                               ; preds = %4
  call void @llvm.lifetime.start.p0(i64 8, ptr %11) #7
  %20 = load ptr, ptr %5, align 8
  %21 = getelementptr inbounds nuw %struct.GISTBuildBuffers, ptr %20, i32 0, i32 0
  %22 = load ptr, ptr %21, align 8
  %23 = call ptr @MemoryContextSwitchTo(ptr noundef %22)
  store ptr %23, ptr %11, align 8
  %24 = load ptr, ptr %9, align 8
  %25 = getelementptr inbounds nuw %struct.GISTNodeBuffer, ptr %24, i32 0, i32 1
  store i32 0, ptr %25, align 4
  %26 = load ptr, ptr %9, align 8
  %27 = getelementptr inbounds nuw %struct.GISTNodeBuffer, ptr %26, i32 0, i32 2
  store i32 -1, ptr %27, align 8
  %28 = load ptr, ptr %9, align 8
  %29 = getelementptr inbounds nuw %struct.GISTNodeBuffer, ptr %28, i32 0, i32 3
  store ptr null, ptr %29, align 8
  %30 = load ptr, ptr %9, align 8
  %31 = getelementptr inbounds nuw %struct.GISTNodeBuffer, ptr %30, i32 0, i32 4
  store i8 0, ptr %31, align 8
  %32 = load ptr, ptr %9, align 8
  %33 = getelementptr inbounds nuw %struct.GISTNodeBuffer, ptr %32, i32 0, i32 5
  store i8 0, ptr %33, align 1
  %34 = load i32, ptr %8, align 4
  %35 = load ptr, ptr %9, align 8
  %36 = getelementptr inbounds nuw %struct.GISTNodeBuffer, ptr %35, i32 0, i32 6
  store i32 %34, ptr %36, align 4
  %37 = load i32, ptr %8, align 4
  %38 = load ptr, ptr %5, align 8
  %39 = getelementptr inbounds nuw %struct.GISTBuildBuffers, ptr %38, i32 0, i32 11
  %40 = load i32, ptr %39, align 8
  %41 = icmp sge i32 %37, %40
  br i1 %41, label %42, label %75

42:                                               ; preds = %19
  call void @llvm.lifetime.start.p0(i64 4, ptr %12) #7
  %43 = load ptr, ptr %5, align 8
  %44 = getelementptr inbounds nuw %struct.GISTBuildBuffers, ptr %43, i32 0, i32 10
  %45 = load ptr, ptr %44, align 8
  %46 = load i32, ptr %8, align 4
  %47 = add i32 %46, 1
  %48 = sext i32 %47 to i64
  %49 = mul i64 %48, 8
  %50 = call ptr @repalloc(ptr noundef %45, i64 noundef %49)
  %51 = load ptr, ptr %5, align 8
  %52 = getelementptr inbounds nuw %struct.GISTBuildBuffers, ptr %51, i32 0, i32 10
  store ptr %50, ptr %52, align 8
  %53 = load ptr, ptr %5, align 8
  %54 = getelementptr inbounds nuw %struct.GISTBuildBuffers, ptr %53, i32 0, i32 11
  %55 = load i32, ptr %54, align 8
  store i32 %55, ptr %12, align 4
  br label %56

56:                                               ; preds = %67, %42
  %57 = load i32, ptr %12, align 4
  %58 = load i32, ptr %8, align 4
  %59 = icmp sle i32 %57, %58
  br i1 %59, label %60, label %70

60:                                               ; preds = %56
  %61 = load ptr, ptr %5, align 8
  %62 = getelementptr inbounds nuw %struct.GISTBuildBuffers, ptr %61, i32 0, i32 10
  %63 = load ptr, ptr %62, align 8
  %64 = load i32, ptr %12, align 4
  %65 = sext i32 %64 to i64
  %66 = getelementptr inbounds ptr, ptr %63, i64 %65
  store ptr null, ptr %66, align 8
  br label %67

67:                                               ; preds = %60
  %68 = load i32, ptr %12, align 4
  %69 = add i32 %68, 1
  store i32 %69, ptr %12, align 4
  br label %56, !llvm.loop !6

70:                                               ; preds = %56
  %71 = load i32, ptr %8, align 4
  %72 = add i32 %71, 1
  %73 = load ptr, ptr %5, align 8
  %74 = getelementptr inbounds nuw %struct.GISTBuildBuffers, ptr %73, i32 0, i32 11
  store i32 %72, ptr %74, align 8
  call void @llvm.lifetime.end.p0(i64 4, ptr %12) #7
  br label %75

75:                                               ; preds = %70, %19
  %76 = load ptr, ptr %9, align 8
  %77 = load ptr, ptr %5, align 8
  %78 = getelementptr inbounds nuw %struct.GISTBuildBuffers, ptr %77, i32 0, i32 10
  %79 = load ptr, ptr %78, align 8
  %80 = load i32, ptr %8, align 4
  %81 = sext i32 %80 to i64
  %82 = getelementptr inbounds ptr, ptr %79, i64 %81
  %83 = load ptr, ptr %82, align 8
  %84 = call ptr @lcons(ptr noundef %76, ptr noundef %83)
  %85 = load ptr, ptr %5, align 8
  %86 = getelementptr inbounds nuw %struct.GISTBuildBuffers, ptr %85, i32 0, i32 10
  %87 = load ptr, ptr %86, align 8
  %88 = load i32, ptr %8, align 4
  %89 = sext i32 %88 to i64
  %90 = getelementptr inbounds ptr, ptr %87, i64 %89
  store ptr %84, ptr %90, align 8
  %91 = load ptr, ptr %11, align 8
  %92 = call ptr @MemoryContextSwitchTo(ptr noundef %91)
  call void @llvm.lifetime.end.p0(i64 8, ptr %11) #7
  br label %93

93:                                               ; preds = %75, %4
  %94 = load ptr, ptr %9, align 8
  call void @llvm.lifetime.end.p0(i64 1, ptr %10) #7
  call void @llvm.lifetime.end.p0(i64 8, ptr %9) #7
  ret ptr %94
}