; Function Attrs: nounwind uwtable
define dso_local ptr @gistGetNodeBuffer(ptr noundef captures(none) %0, ptr readnone captures(none) %1, i32 noundef %2, i32 noundef %3) local_unnamed_addr #0 {
  %5 = alloca i32, align 4
  %6 = alloca i8, align 1
  store i32 %2, ptr %5, align 4
  call void @llvm.lifetime.start.p0(i64 1, ptr nonnull %6) #6
  %7 = getelementptr inbounds nuw i8, ptr %0, i64 40
  %8 = load ptr, ptr %7, align 8
  %9 = call ptr @hash_search(ptr noundef %8, ptr noundef nonnull %5, i32 noundef 1, ptr noundef nonnull %6) #6
  %10 = load i8, ptr %6, align 1, !range !4, !noundef !5
  %11 = trunc nuw i8 %10 to i1
  br i1 %11, label %44, label %12

12:                                               ; preds = %4
  %13 = load ptr, ptr %0, align 8
  %14 = load ptr, ptr @CurrentMemoryContext, align 8
  store ptr %13, ptr @CurrentMemoryContext, align 8
  %15 = getelementptr inbounds nuw i8, ptr %9, i64 4
  store i32 0, ptr %15, align 4
  %16 = getelementptr inbounds nuw i8, ptr %9, i64 8
  store i32 -1, ptr %16, align 8
  %17 = getelementptr inbounds nuw i8, ptr %9, i64 16
  store ptr null, ptr %17, align 8
  %18 = getelementptr inbounds nuw i8, ptr %9, i64 24
  store i8 0, ptr %18, align 8
  %19 = getelementptr inbounds nuw i8, ptr %9, i64 25
  store i8 0, ptr %19, align 1
  %20 = getelementptr inbounds nuw i8, ptr %9, i64 28
  store i32 %3, ptr %20, align 4
  %21 = getelementptr inbounds nuw i8, ptr %0, i64 72
  %22 = load i32, ptr %21, align 8
  %.not = icmp slt i32 %3, %22
  br i1 %.not, label %35, label %23

23:                                               ; preds = %12
  %24 = getelementptr inbounds nuw i8, ptr %0, i64 64
  %25 = load ptr, ptr %24, align 8
  %26 = add i32 %3, 1
  %27 = sext i32 %26 to i64
  %28 = shl nsw i64 %27, 3
  %29 = call ptr @repalloc(ptr noundef %25, i64 noundef %28) #6
  store ptr %29, ptr %24, align 8
  %30 = load i32, ptr %21, align 8
  %.not2930 = icmp sgt i32 %30, %3
  br i1 %.not2930, label %._crit_edge, label %.lr.ph

.lr.ph:                                           ; preds = %23, %.lr.ph
  %.031 = phi i32 [ %34, %.lr.ph ], [ %30, %23 ]
  %31 = load ptr, ptr %24, align 8
  %32 = sext i32 %.031 to i64
  %33 = getelementptr inbounds ptr, ptr %31, i64 %32
  store ptr null, ptr %33, align 8
  %34 = add i32 %.031, 1
  %.not29 = icmp sgt i32 %34, %3
  br i1 %.not29, label %._crit_edge, label %.lr.ph, !llvm.loop !6

._crit_edge:                                      ; preds = %.lr.ph, %23
  store i32 %26, ptr %21, align 8
  br label %35

35:                                               ; preds = %._crit_edge, %12
  %36 = getelementptr inbounds nuw i8, ptr %0, i64 64
  %37 = load ptr, ptr %36, align 8
  %38 = sext i32 %3 to i64
  %39 = getelementptr inbounds ptr, ptr %37, i64 %38
  %40 = load ptr, ptr %39, align 8
  %41 = call ptr @lcons(ptr noundef %9, ptr noundef %40) #6
  %42 = load ptr, ptr %36, align 8
  %43 = getelementptr inbounds ptr, ptr %42, i64 %38
  store ptr %41, ptr %43, align 8
  store ptr %14, ptr @CurrentMemoryContext, align 8
  br label %44

44:                                               ; preds = %35, %4
  call void @llvm.lifetime.end.p0(i64 1, ptr nonnull %6) #6
  ret ptr %9
}